; Function Attrs: nounwind uwtable
define hidden i32 @mbedtls_ecp_mul_restartable(ptr noundef %0, ptr noundef %1, ptr noundef %2, ptr noundef %3, ptr noundef %4, ptr noundef %5, ptr noundef readnone captures(none) %6) local_unnamed_addr #7 {
  %8 = icmp eq ptr %4, null
  br i1 %8, label %11, label %9

9:                                                ; preds = %7
  %10 = tail call fastcc i32 @ecp_mul_restartable_internal(ptr noundef %0, ptr noundef %1, ptr noundef %2, ptr noundef %3, ptr noundef nonnull %4, ptr noundef %5)
  br label %11

11:                                               ; preds = %7, %9
  %.0 = phi i32 [ %10, %9 ], [ -20352, %7 ]
  ret i32 %.0
}